target datalayout = "e-m:e-p270:32:32-p271:32:32-p272:64:64-i64:64-i128:128-f80:128-n8:16:32:64-S128"
target triple = "x86_64-pc-linux-gnu"

%class.ref = type { ptr }
%class.ast = type { i32, i32, i32, i32 }
%class.ptr_vector.38 = type { %class.vector.39 }
%class.vector.39 = type { ptr }
%"struct.(anonymous namespace)::elim_uncnstr_tactic::rw_cfg" = type <{ i8, [7 x i8], ptr, ptr, %class.ref, %class.arith_util, %class.bv_util, %class.array_util, %"class.datatype::util", %class.seq_util, %class.ref_vector.35, %class.obj_map.44, %class.ref_vector.35, i64, i32, [4 x i8] }>
%class.arith_util = type { ptr, ptr }
%class.bv_util = type { %class.bv_recognizers, ptr, ptr }
%class.bv_recognizers = type { i32 }
%class.array_util = type { %class.array_recognizers, ptr }
%class.array_recognizers = type { i32 }
%"class.datatype::util" = type { ptr, i32, ptr }
%class.seq_util = type { ptr, ptr, ptr, i32, [4 x i8], %"class.seq_util::str", %"class.seq_util::rex" }
%"class.seq_util::str" = type <{ ptr, ptr, i32, [4 x i8] }>
%"class.seq_util::rex" = type { ptr, ptr, i32, %class.vector.43, %class.ref_vector, %"struct.seq_util::rex::info", %"struct.seq_util::rex::info" }
%class.vector.43 = type { ptr }
%class.ref_vector = type { %class.ref_vector_core }
%class.ref_vector_core = type { %class.ref_manager_wrapper, %class.ptr_vector.33 }
%class.ref_manager_wrapper = type { ptr }
%class.ptr_vector.33 = type { %class.vector.34 }
%class.vector.34 = type { ptr }
%"struct.seq_util::rex::info" = type { i32, i8, i32, i32 }
%class.obj_map.44 = type { %class.core_hashtable.45 }
%class.core_hashtable.45 = type <{ ptr, i32, i32, i32, [4 x i8] }>
%class.ref_vector.35 = type { %class.ref_vector_core.36 }
%class.ref_vector_core.36 = type { %class.ref_manager_wrapper.37, %class.ptr_vector.38 }
%class.ref_manager_wrapper.37 = type { ptr }
%class.app = type { %class.expr, ptr, i32, %struct.app_flags, [0 x ptr] }
%class.expr = type { %class.ast }
%struct.app_flags = type <{ i16, i8, i8 }>

; Function Attrs: mustprogress nounwind uwtable
define linkonce_odr hidden noundef ptr @_ZNK3app8get_declEv(ptr noundef nonnull align 8 dereferenceable(32) %0) #6 comdat align 2 {
  %2 = alloca ptr, align 8
  store ptr %0, ptr %2, align 8, !tbaa !149
  %3 = load ptr, ptr %2, align 8
  %4 = getelementptr inbounds nuw %class.app, ptr %3, i32 0, i32 1
  %5 = load ptr, ptr %4, align 8, !tbaa !551
  ret ptr %5
}

; Function Attrs: inlinehint mustprogress nounwind uwtable
define linkonce_odr hidden noundef ptr @_Z6to_appP3ast(ptr noundef %0) #5 comdat {
  %2 = alloca ptr, align 8
  store ptr %0, ptr %2, align 8, !tbaa !137
  %3 = load ptr, ptr %2, align 8, !tbaa !137
  ret ptr %3
}

; Function Attrs: mustprogress uwtable
define linkonce_odr hidden void @_ZN23generic_model_converter3addEP4exprS1_(ptr noundef nonnull align 8 dereferenceable(80) %0, ptr noundef %1, ptr noundef %2) #4 comdat align 2 {
  %4 = alloca ptr, align 8
  %5 = alloca ptr, align 8
  %6 = alloca ptr, align 8
  store ptr %0, ptr %4, align 8, !tbaa !228
  store ptr %1, ptr %5, align 8, !tbaa !55
  store ptr %2, ptr %6, align 8, !tbaa !55
  %7 = load ptr, ptr %4, align 8
  %8 = load ptr, ptr %5, align 8, !tbaa !55
  %9 = call noundef ptr @_Z6to_appP3ast(ptr noundef %8)
  %10 = call noundef ptr @_ZNK3app8get_declEv(ptr noundef nonnull align 8 dereferenceable(32) %9)
  %11 = load ptr, ptr %6, align 8, !tbaa !55
  call void @_ZN23generic_model_converter3addEP9func_declP4expr(ptr noundef nonnull align 8 dereferenceable(80) %7, ptr noundef %10, ptr noundef %11)
  ret void
}

; Function Attrs: mustprogress nounwind uwtable
define linkonce_odr hidden noundef ptr @_ZNK3refI23generic_model_converterEptEv(ptr noundef nonnull align 8 dereferenceable(8) %0) #6 comdat align 2 {
  %2 = alloca ptr, align 8
  store ptr %0, ptr %2, align 8, !tbaa !32
  %3 = load ptr, ptr %2, align 8
  %4 = getelementptr inbounds nuw %class.ref, ptr %3, i32 0, i32 0
  %5 = load ptr, ptr %4, align 8, !tbaa !34
  ret ptr %5
}

; Function Attrs: mustprogress uwtable
define internal void @_ZN12_GLOBAL__N_119elim_uncnstr_tactic6rw_cfg7add_defEP4exprS3_(ptr noundef nonnull align 8 dereferenceable(316) %0, ptr noundef %1, ptr noundef %2) #4 align 2 {
  %4 = alloca ptr, align 8
  %5 = alloca ptr, align 8
  %6 = alloca ptr, align 8
  store ptr %0, ptr %4, align 8, !tbaa !302
  store ptr %1, ptr %5, align 8, !tbaa !55
  store ptr %2, ptr %6, align 8, !tbaa !55
  %7 = load ptr, ptr %4, align 8
  %8 = getelementptr inbounds nuw %"struct.(anonymous namespace)::elim_uncnstr_tactic::rw_cfg", ptr %7, i32 0, i32 4
  %9 = call noundef zeroext i1 @_ZNK3refI23generic_model_converterEcvbEv(ptr noundef nonnull align 8 dereferenceable(8) %8)
  br i1 %9, label %10, label %15

10:                                               ; preds = %3
  %11 = getelementptr inbounds nuw %"struct.(anonymous namespace)::elim_uncnstr_tactic::rw_cfg", ptr %7, i32 0, i32 4
  %12 = call noundef ptr @_ZNK3refI23generic_model_converterEptEv(ptr noundef nonnull align 8 dereferenceable(8) %11)
  %13 = load ptr, ptr %5, align 8, !tbaa !55
  %14 = load ptr, ptr %6, align 8, !tbaa !55
  call void @_ZN23generic_model_converter3addEP4exprS1_(ptr noundef nonnull align 8 dereferenceable(80) %12, ptr noundef %13, ptr noundef %14)
  br label %15

15:                                               ; preds = %10, %3
  ret void
}

; Function Attrs: mustprogress nounwind uwtable
define linkonce_odr hidden noundef zeroext i1 @_ZNK3refI23generic_model_converterEcvbEv(ptr noundef nonnull align 8 dereferenceable(8) %0) #6 comdat align 2 {
  %2 = alloca ptr, align 8
  store ptr %0, ptr %2, align 8, !tbaa !32
  %3 = load ptr, ptr %2, align 8
  %4 = getelementptr inbounds nuw %class.ref, ptr %3, i32 0, i32 0
  %5 = load ptr, ptr %4, align 8, !tbaa !34
  %6 = icmp ne ptr %5, null
  ret i1 %6
}

; Function Attrs: mustprogress uwtable
define internal void @_ZN12_GLOBAL__N_119elim_uncnstr_tactic6rw_cfg8add_defsEjPKP4exprS3_S3_(ptr noundef nonnull align 8 dereferenceable(316) %0, i32 noundef %1, ptr noundef %2, ptr noundef %3, ptr noundef %4) #4 align 2 {
  %6 = alloca ptr, align 8
  %7 = alloca i32, align 4
  %8 = alloca ptr, align 8
  %9 = alloca ptr, align 8
  %10 = alloca ptr, align 8
  %11 = alloca i32, align 4
  store ptr %0, ptr %6, align 8, !tbaa !302
  store i32 %1, ptr %7, align 4, !tbaa !37
  store ptr %2, ptr %8, align 8, !tbaa !129
  store ptr %3, ptr %9, align 8, !tbaa !55
  store ptr %4, ptr %10, align 8, !tbaa !55
  %12 = load ptr, ptr %6, align 8
  %13 = getelementptr inbounds nuw %"struct.(anonymous namespace)::elim_uncnstr_tactic::rw_cfg", ptr %12, i32 0, i32 4
  %14 = call noundef zeroext i1 @_ZNK3refI23generic_model_converterEcvbEv(ptr noundef nonnull align 8 dereferenceable(8) %13)
  br i1 %14, label %15, label %36

15:                                               ; preds = %5
  %16 = load ptr, ptr %8, align 8, !tbaa !129
  %17 = getelementptr inbounds ptr, ptr %16, i64 0
  %18 = load ptr, ptr %17, align 8, !tbaa !55
  %19 = load ptr, ptr %9, align 8, !tbaa !55
  call void @_ZN12_GLOBAL__N_119elim_uncnstr_tactic6rw_cfg7add_defEP4exprS3_(ptr noundef nonnull align 8 dereferenceable(316) %12, ptr noundef %18, ptr noundef %19)
  call void @llvm.lifetime.start.p0(i64 4, ptr %11) #3
  store i32 1, ptr %11, align 4, !tbaa !37
  br label %20

20:                                               ; preds = %32, %15
  %21 = load i32, ptr %11, align 4, !tbaa !37
  %22 = load i32, ptr %7, align 4, !tbaa !37
  %23 = icmp ult i32 %21, %22
  br i1 %23, label %25, label %24

24:                                               ; preds = %20
  call void @llvm.lifetime.end.p0(i64 4, ptr %11) #3
  br label %35

25:                                               ; preds = %20
  %26 = load ptr, ptr %8, align 8, !tbaa !129
  %27 = load i32, ptr %11, align 4, !tbaa !37
  %28 = zext i32 %27 to i64
  %29 = getelementptr inbounds nuw ptr, ptr %26, i64 %28
  %30 = load ptr, ptr %29, align 8, !tbaa !55
  %31 = load ptr, ptr %10, align 8, !tbaa !55
  call void @_ZN12_GLOBAL__N_119elim_uncnstr_tactic6rw_cfg7add_defEP4exprS3_(ptr noundef nonnull align 8 dereferenceable(316) %12, ptr noundef %30, ptr noundef %31)
  br label %32

32:                                               ; preds = %25
  %33 = load i32, ptr %11, align 4, !tbaa !37
  %34 = add i32 %33, 1
  store i32 %34, ptr %11, align 4, !tbaa !37
  br label %20, !llvm.loop !583

35:                                               ; preds = %24
  br label %36

36:                                               ; preds = %35, %5
  ret void
}