; Function Attrs: mustprogress uwtable
define internal fastcc void @_ZN12_GLOBAL__N_119elim_uncnstr_tactic6rw_cfg8add_defsEjPKP4exprS3_S3_(ptr noundef nonnull readonly align 8 captures(none) dereferenceable(316) %0, i32 noundef range(i32 1, 0) %1, ptr noundef readonly captures(none) %2, ptr noundef %3, ptr noundef %4) unnamed_addr #3 align 2 {
  %6 = getelementptr inbounds nuw i8, ptr %0, i64 24
  %7 = load ptr, ptr %6, align 8, !tbaa !14
  %.not = icmp eq ptr %7, null
  br i1 %.not, label %.loopexit, label %_ZN12_GLOBAL__N_119elim_uncnstr_tactic6rw_cfg7add_defEP4exprS3_.exit

_ZN12_GLOBAL__N_119elim_uncnstr_tactic6rw_cfg7add_defEP4exprS3_.exit: ; preds = %5
  %8 = load ptr, ptr %2, align 8, !tbaa !44
  %9 = getelementptr inbounds nuw i8, ptr %8, i64 16
  %10 = load ptr, ptr %9, align 8, !tbaa !256
  tail call void @_ZN23generic_model_converter3addEP9func_declP4expr(ptr noundef nonnull align 8 dereferenceable(80) %7, ptr noundef %10, ptr noundef %3)
  %11 = icmp ugt i32 %1, 1
  br i1 %11, label %.lr.ph, label %.loopexit

.lr.ph:                                           ; preds = %_ZN12_GLOBAL__N_119elim_uncnstr_tactic6rw_cfg7add_defEP4exprS3_.exit
  %12 = load ptr, ptr %6, align 8, !tbaa !14
  %13 = icmp eq ptr %12, null
  br i1 %13, label %.loopexit, label %.lr.ph.split.preheader

.lr.ph.split.preheader:                           ; preds = %.lr.ph
  %wide.trip.count = zext i32 %1 to i64
  br label %.lr.ph.split

.lr.ph.splitthread-pre-split:                     ; preds = %_ZN12_GLOBAL__N_119elim_uncnstr_tactic6rw_cfg7add_defEP4exprS3_.exit10
  %.val.pr = load ptr, ptr %6, align 8, !tbaa !14
  br label %.lr.ph.split

.lr.ph.split:                                     ; preds = %.lr.ph.splitthread-pre-split, %.lr.ph.split.preheader
  %.val = phi ptr [ %.val.pr, %.lr.ph.splitthread-pre-split ], [ %12, %.lr.ph.split.preheader ]
  %indvars.iv = phi i64 [ %indvars.iv.next, %.lr.ph.splitthread-pre-split ], [ 1, %.lr.ph.split.preheader ]
  %.not.i9 = icmp eq ptr %.val, null
  br i1 %.not.i9, label %_ZN12_GLOBAL__N_119elim_uncnstr_tactic6rw_cfg7add_defEP4exprS3_.exit10, label %14

14:                                               ; preds = %.lr.ph.split
  %15 = getelementptr inbounds nuw ptr, ptr %2, i64 %indvars.iv
  %16 = load ptr, ptr %15, align 8, !tbaa !44
  %17 = getelementptr inbounds nuw i8, ptr %16, i64 16
  %18 = load ptr, ptr %17, align 8, !tbaa !256
  tail call void @_ZN23generic_model_converter3addEP9func_declP4expr(ptr noundef nonnull align 8 dereferenceable(80) %.val, ptr noundef %18, ptr noundef %4)
  br label %_ZN12_GLOBAL__N_119elim_uncnstr_tactic6rw_cfg7add_defEP4exprS3_.exit10

_ZN12_GLOBAL__N_119elim_uncnstr_tactic6rw_cfg7add_defEP4exprS3_.exit10: ; preds = %.lr.ph.split, %14
  %indvars.iv.next = add nuw nsw i64 %indvars.iv, 1
  %exitcond.not = icmp eq i64 %indvars.iv.next, %wide.trip.count
  br i1 %exitcond.not, label %.loopexit, label %.lr.ph.splitthread-pre-split, !llvm.loop !376

.loopexit:                                        ; preds = %_ZN12_GLOBAL__N_119elim_uncnstr_tactic6rw_cfg7add_defEP4exprS3_.exit10, %.lr.ph, %_ZN12_GLOBAL__N_119elim_uncnstr_tactic6rw_cfg7add_defEP4exprS3_.exit, %5
  ret void
}